; Function Attrs: mustprogress nounwind uwtable
define void @_ZN3gmx13TextInputFileD2Ev(ptr noundef nonnull align 8 captures(none) dereferenceable(16) initializes((0, 8)) %0) unnamed_addr #0 align 2 personality ptr @__gxx_personality_v0 {
  store ptr getelementptr inbounds nuw inrange(-16, 32) (i8, ptr @_ZTVN3gmx13TextInputFileE, i64 16), ptr %0, align 8, !tbaa !16
  %2 = getelementptr inbounds nuw i8, ptr %0, i64 8
  %3 = load ptr, ptr %2, align 8, !tbaa !9
  %.not.i = icmp eq ptr %3, null
  br i1 %.not.i, label %_ZNSt10unique_ptrIN3gmx8internal14FileStreamImplESt14default_deleteIS2_EED2Ev.exit, label %4

4:                                                ; preds = %1
  %5 = load ptr, ptr %3, align 8, !tbaa !11
  %.not.i.i.i = icmp eq ptr %5, null
  br i1 %.not.i.i.i, label %_ZNKSt14default_deleteIN3gmx8internal14FileStreamImplEEclEPS2_.exit.i, label %6

6:                                                ; preds = %4
  %7 = getelementptr inbounds nuw i8, ptr %3, i64 8
  %8 = load i8, ptr %7, align 8, !tbaa !68, !range !76, !noundef !77
  %9 = trunc nuw i8 %8 to i1
  br i1 %9, label %10, label %_ZNKSt14default_deleteIN3gmx8internal14FileStreamImplEEclEPS2_.exit.i

10:                                               ; preds = %6
  %11 = tail call i32 @fclose(ptr noundef nonnull %5)
  br label %_ZNKSt14default_deleteIN3gmx8internal14FileStreamImplEEclEPS2_.exit.i

_ZNKSt14default_deleteIN3gmx8internal14FileStreamImplEEclEPS2_.exit.i: ; preds = %10, %6, %4
  tail call void @_ZdlPvm(ptr noundef nonnull %3, i64 noundef 16) #21
  br label %_ZNSt10unique_ptrIN3gmx8internal14FileStreamImplESt14default_deleteIS2_EED2Ev.exit

_ZNSt10unique_ptrIN3gmx8internal14FileStreamImplESt14default_deleteIS2_EED2Ev.exit: ; preds = %1, %_ZNKSt14default_deleteIN3gmx8internal14FileStreamImplEEclEPS2_.exit.i
  store ptr null, ptr %2, align 8, !tbaa !9
  ret void
}